target datalayout = "e-m:e-p270:32:32-p271:32:32-p272:64:64-i64:64-i128:128-f80:128-n8:16:32:64-S128"
target triple = "x86_64-pc-linux-gnu"

; Function Attrs: nounwind uwtable
define internal void @write_new_certificate(ptr noundef %0, ptr noundef %1, i32 noundef %2, i32 noundef %3) #0 {
  %5 = alloca ptr, align 8
  %6 = alloca ptr, align 8
  %7 = alloca i32, align 4
  %8 = alloca i32, align 4
  store ptr %0, ptr %5, align 8, !tbaa !19
  store ptr %1, ptr %6, align 8, !tbaa !35
  store i32 %2, ptr %7, align 4, !tbaa !4
  store i32 %3, ptr %8, align 4, !tbaa !4
  %9 = load i32, ptr %7, align 4, !tbaa !4
  %10 = icmp ne i32 %9, 0
  br i1 %10, label %11, label %15

11:                                               ; preds = %4
  %12 = load ptr, ptr %5, align 8, !tbaa !19
  %13 = load ptr, ptr %6, align 8, !tbaa !35
  %14 = call i32 @i2d_X509_bio(ptr noundef %12, ptr noundef %13)
  br label %26

15:                                               ; preds = %4
  %16 = load i32, ptr %8, align 4, !tbaa !4
  %17 = icmp ne i32 %16, 0
  br i1 %17, label %22, label %18

18:                                               ; preds = %15
  %19 = load ptr, ptr %5, align 8, !tbaa !19
  %20 = load ptr, ptr %6, align 8, !tbaa !35
  %21 = call i32 @X509_print(ptr noundef %19, ptr noundef %20)
  br label %22

22:                                               ; preds = %18, %15
  %23 = load ptr, ptr %5, align 8, !tbaa !19
  %24 = load ptr, ptr %6, align 8, !tbaa !35
  %25 = call i32 @PEM_write_bio_X509(ptr noundef %23, ptr noundef %24)
  br label %26

26:                                               ; preds = %22, %11
  ret void
}