; Function Attrs: nounwind uwtable
define internal fastcc void @write_new_certificate(ptr noundef nonnull %0, ptr noundef %1, i32 noundef range(i32 0, 2) %2, i32 noundef range(i32 0, 2) %3) unnamed_addr #0 {
  %.not = icmp eq i32 %2, 0
  br i1 %.not, label %7, label %5

5:                                                ; preds = %4
  %6 = tail call i32 @i2d_X509_bio(ptr noundef nonnull %0, ptr noundef %1) #12
  br label %12

7:                                                ; preds = %4
  %.not7 = icmp eq i32 %3, 0
  br i1 %.not7, label %8, label %10

8:                                                ; preds = %7
  %9 = tail call i32 @X509_print(ptr noundef nonnull %0, ptr noundef %1) #12
  br label %10

10:                                               ; preds = %8, %7
  %11 = tail call i32 @PEM_write_bio_X509(ptr noundef nonnull %0, ptr noundef %1) #12
  br label %12

12:                                               ; preds = %10, %5
  ret void
}